; ModuleID = '33/3347.c'
source_filename = "33/3347.c"
target datalayout = "e-m:e-p270:32:32-p271:32:32-p272:64:64-i64:64-f80:128-n8:16:32:64-S128"
target triple = "x86_64-pc-linux-gnu"

%struct.zf = type { [1000 x i8], [1000 x i8] }

@.str = private unnamed_addr constant [4 x i8] c"%d\0A\00", align 1
@.str.1 = private unnamed_addr constant [4 x i8] c"%s\0A\00", align 1

; Function Attrs: noinline nounwind uwtable
define dso_local i32 @main() #0 {
  %1 = alloca i32, align 4
  %2 = alloca [1000 x %struct.zf], align 16
  %3 = alloca i32, align 4
  %4 = alloca i32, align 4
  %5 = alloca i32, align 4
  store i32 0, i32* %1, align 4
  %6 = call i32 (i8*, ...) @__isoc99_scanf(i8* getelementptr inbounds ([4 x i8], [4 x i8]* @.str, i64 0, i64 0), i32* %3)
  store i32 0, i32* %4, align 4
  br label %7

7:                                                ; preds = %18, %0
  %8 = load i32, i32* %4, align 4
  %9 = load i32, i32* %3, align 4
  %10 = icmp slt i32 %8, %9
  br i1 %10, label %11, label %21

11:                                               ; preds = %7
  %12 = load i32, i32* %4, align 4
  %13 = sext i32 %12 to i64
  %14 = getelementptr inbounds [1000 x %struct.zf], [1000 x %struct.zf]* %2, i64 0, i64 %13
  %15 = getelementptr inbounds %struct.zf, %struct.zf* %14, i32 0, i32 0
  %16 = getelementptr inbounds [1000 x i8], [1000 x i8]* %15, i64 0, i64 0
  %17 = call i32 (i8*, ...) bitcast (i32 (...)* @gets to i32 (i8*, ...)*)(i8* %16)
  br label %18

18:                                               ; preds = %11
  %19 = load i32, i32* %4, align 4
  %20 = add nsw i32 %19, 1
  store i32 %20, i32* %4, align 4
  br label %7

21:                                               ; preds = %7
  store i32 0, i32* %4, align 4
  br label %22

22:                                               ; preds = %129, %21
  %23 = load i32, i32* %4, align 4
  %24 = load i32, i32* %3, align 4
  %25 = icmp slt i32 %23, %24
  br i1 %25, label %26, label %132

26:                                               ; preds = %22
  store i32 0, i32* %5, align 4
  br label %27

27:                                               ; preds = %118, %26
  %28 = load i32, i32* %4, align 4
  %29 = sext i32 %28 to i64
  %30 = getelementptr inbounds [1000 x %struct.zf], [1000 x %struct.zf]* %2, i64 0, i64 %29
  %31 = getelementptr inbounds %struct.zf, %struct.zf* %30, i32 0, i32 0
  %32 = load i32, i32* %5, align 4
  %33 = sext i32 %32 to i64
  %34 = getelementptr inbounds [1000 x i8], [1000 x i8]* %31, i64 0, i64 %33
  %35 = load i8, i8* %34, align 1
  %36 = sext i8 %35 to i32
  %37 = icmp ne i32 %36, 0
  br i1 %37, label %38, label %121

38:                                               ; preds = %27
  %39 = load i32, i32* %4, align 4
  %40 = sext i32 %39 to i64
  %41 = getelementptr inbounds [1000 x %struct.zf], [1000 x %struct.zf]* %2, i64 0, i64 %40
  %42 = getelementptr inbounds %struct.zf, %struct.zf* %41, i32 0, i32 0
  %43 = load i32, i32* %5, align 4
  %44 = sext i32 %43 to i64
  %45 = getelementptr inbounds [1000 x i8], [1000 x i8]* %42, i64 0, i64 %44
  %46 = load i8, i8* %45, align 1
  %47 = sext i8 %46 to i32
  %48 = icmp eq i32 %47, 65
  br i1 %48, label %49, label %57

49:                                               ; preds = %38
  %50 = load i32, i32* %4, align 4
  %51 = sext i32 %50 to i64
  %52 = getelementptr inbounds [1000 x %struct.zf], [1000 x %struct.zf]* %2, i64 0, i64 %51
  %53 = getelementptr inbounds %struct.zf, %struct.zf* %52, i32 0, i32 1
  %54 = load i32, i32* %5, align 4
  %55 = sext i32 %54 to i64
  %56 = getelementptr inbounds [1000 x i8], [1000 x i8]* %53, i64 0, i64 %55
  store i8 84, i8* %56, align 1
  br label %117

57:                                               ; preds = %38
  %58 = load i32, i32* %4, align 4
  %59 = sext i32 %58 to i64
  %60 = getelementptr inbounds [1000 x %struct.zf], [1000 x %struct.zf]* %2, i64 0, i64 %59
  %61 = getelementptr inbounds %struct.zf, %struct.zf* %60, i32 0, i32 0
  %62 = load i32, i32* %5, align 4
  %63 = sext i32 %62 to i64
  %64 = getelementptr inbounds [1000 x i8], [1000 x i8]* %61, i64 0, i64 %63
  %65 = load i8, i8* %64, align 1
  %66 = sext i8 %65 to i32
  %67 = icmp eq i32 %66, 84
  br i1 %67, label %68, label %76

68:                                               ; preds = %57
  %69 = load i32, i32* %4, align 4
  %70 = sext i32 %69 to i64
  %71 = getelementptr inbounds [1000 x %struct.zf], [1000 x %struct.zf]* %2, i64 0, i64 %70
  %72 = getelementptr inbounds %struct.zf, %struct.zf* %71, i32 0, i32 1
  %73 = load i32, i32* %5, align 4
  %74 = sext i32 %73 to i64
  %75 = getelementptr inbounds [1000 x i8], [1000 x i8]* %72, i64 0, i64 %74
  store i8 65, i8* %75, align 1
  br label %116

76:                                               ; preds = %57
  %77 = load i32, i32* %4, align 4
  %78 = sext i32 %77 to i64
  %79 = getelementptr inbounds [1000 x %struct.zf], [1000 x %struct.zf]* %2, i64 0, i64 %78
  %80 = getelementptr inbounds %struct.zf, %struct.zf* %79, i32 0, i32 0
  %81 = load i32, i32* %5, align 4
  %82 = sext i32 %81 to i64
  %83 = getelementptr inbounds [1000 x i8], [1000 x i8]* %80, i64 0, i64 %82
  %84 = load i8, i8* %83, align 1
  %85 = sext i8 %84 to i32
  %86 = icmp eq i32 %85, 67
  br i1 %86, label %87, label %95

87:                                               ; preds = %76
  %88 = load i32, i32* %4, align 4
  %89 = sext i32 %88 to i64
  %90 = getelementptr inbounds [1000 x %struct.zf], [1000 x %struct.zf]* %2, i64 0, i64 %89
  %91 = getelementptr inbounds %struct.zf, %struct.zf* %90, i32 0, i32 1
  %92 = load i32, i32* %5, align 4
  %93 = sext i32 %92 to i64
  %94 = getelementptr inbounds [1000 x i8], [1000 x i8]* %91, i64 0, i64 %93
  store i8 71, i8* %94, align 1
  br label %115

95:                                               ; preds = %76
  %96 = load i32, i32* %4, align 4
  %97 = sext i32 %96 to i64
  %98 = getelementptr inbounds [1000 x %struct.zf], [1000 x %struct.zf]* %2, i64 0, i64 %97
  %99 = getelementptr inbounds %struct.zf, %struct.zf* %98, i32 0, i32 0
  %100 = load i32, i32* %5, align 4
  %101 = sext i32 %100 to i64
  %102 = getelementptr inbounds [1000 x i8], [1000 x i8]* %99, i64 0, i64 %101
  %103 = load i8, i8* %102, align 1
  %104 = sext i8 %103 to i32
  %105 = icmp eq i32 %104, 71
  br i1 %105, label %106, label %114

106:                                              ; preds = %95
  %107 = load i32, i32* %4, align 4
  %108 = sext i32 %107 to i64
  %109 = getelementptr inbounds [1000 x %struct.zf], [1000 x %struct.zf]* %2, i64 0, i64 %108
  %110 = getelementptr inbounds %struct.zf, %struct.zf* %109, i32 0, i32 1
  %111 = load i32, i32* %5, align 4
  %112 = sext i32 %111 to i64
  %113 = getelementptr inbounds [1000 x i8], [1000 x i8]* %110, i64 0, i64 %112
  store i8 67, i8* %113, align 1
  br label %114

114:                                              ; preds = %106, %95
  br label %115

115:                                              ; preds = %114, %87
  br label %116

116:                                              ; preds = %115, %68
  br label %117

117:                                              ; preds = %116, %49
  br label %118

118:                                              ; preds = %117
  %119 = load i32, i32* %5, align 4
  %120 = add nsw i32 %119, 1
  store i32 %120, i32* %5, align 4
  br label %27

121:                                              ; preds = %27
  %122 = load i32, i32* %4, align 4
  %123 = sext i32 %122 to i64
  %124 = getelementptr inbounds [1000 x %struct.zf], [1000 x %struct.zf]* %2, i64 0, i64 %123
  %125 = getelementptr inbounds %struct.zf, %struct.zf* %124, i32 0, i32 1
  %126 = load i32, i32* %5, align 4
  %127 = sext i32 %126 to i64
  %128 = getelementptr inbounds [1000 x i8], [1000 x i8]* %125, i64 0, i64 %127
  store i8 0, i8* %128, align 1
  br label %129

129:                                              ; preds = %121
  %130 = load i32, i32* %4, align 4
  %131 = add nsw i32 %130, 1
  store i32 %131, i32* %4, align 4
  br label %22

132:                                              ; preds = %22
  store i32 0, i32* %4, align 4
  br label %133

133:                                              ; preds = %144, %132
  %134 = load i32, i32* %4, align 4
  %135 = load i32, i32* %3, align 4
  %136 = icmp slt i32 %134, %135
  br i1 %136, label %137, label %147

137:                                              ; preds = %133
  %138 = load i32, i32* %4, align 4
  %139 = sext i32 %138 to i64
  %140 = getelementptr inbounds [1000 x %struct.zf], [1000 x %struct.zf]* %2, i64 0, i64 %139
  %141 = getelementptr inbounds %struct.zf, %struct.zf* %140, i32 0, i32 1
  %142 = getelementptr inbounds [1000 x i8], [1000 x i8]* %141, i64 0, i64 0
  %143 = call i32 (i8*, ...) @printf(i8* getelementptr inbounds ([4 x i8], [4 x i8]* @.str.1, i64 0, i64 0), i8* %142)
  br label %144

144:                                              ; preds = %137
  %145 = load i32, i32* %4, align 4
  %146 = add nsw i32 %145, 1
  store i32 %146, i32* %4, align 4
  br label %133

147:                                              ; preds = %133
  ret i32 0
}

declare dso_local i32 @__isoc99_scanf(i8*, ...) #1

declare dso_local i32 @gets(...) #1

declare dso_local i32 @printf(i8*, ...) #1


!llvm.module.flags = !{!0}
!llvm.ident = !{!1}

!0 = !{i32 1, !"wchar_size", i32 4}
!1 = !{!"clang version 10.0.0-4ubuntu1 "}
